; Function Attrs: nounwind uwtable
define ptr @l_Lean_Macro_expandMacro_x3f(ptr noundef %0, ptr noundef %1, ptr noundef %2) local_unnamed_addr #0 {
  %4 = getelementptr inbounds nuw i8, ptr %1, i64 8
  %5 = load ptr, ptr %4, align 8, !tbaa !10
  %6 = ptrtoint ptr %5 to i64
  %7 = and i64 %6, 1
  %.not.i20 = icmp eq i64 %7, 0
  br i1 %.not.i20, label %8, label %lean_inc.exit.i

8:                                                ; preds = %3
  %.val.i.i = load i32, ptr %5, align 4, !tbaa !4
  %9 = icmp sgt i32 %.val.i.i, 0
  br i1 %9, label %10, label %12, !prof !9

10:                                               ; preds = %8
  %11 = add nuw i32 %.val.i.i, 1
  store i32 %11, ptr %5, align 4, !tbaa !4
  br label %lean_inc.exit.i

12:                                               ; preds = %8
  %.not.i.i = icmp eq i32 %.val.i.i, 0
  br i1 %.not.i.i, label %lean_inc.exit.i, label %13

13:                                               ; preds = %12
  tail call void @lean_inc_ref_cold(ptr noundef nonnull %5) #11
  br label %lean_inc.exit.i

lean_inc.exit.i:                                  ; preds = %13, %12, %10, %3
  tail call void @lean_inc_heartbeat() #11
  %14 = tail call noalias ptr @mi_malloc_small(i64 noundef 24) #11
  %15 = icmp eq ptr %14, null
  br i1 %15, label %16, label %l_Lean_Macro_getMethodsImp.exit

16:                                               ; preds = %lean_inc.exit.i
  tail call void @lean_internal_panic_out_of_memory() #12
  unreachable

l_Lean_Macro_getMethodsImp.exit:                  ; preds = %lean_inc.exit.i
  %17 = getelementptr inbounds nuw i8, ptr %14, i64 4
  store i32 1, ptr %14, align 4, !tbaa !4
  store i32 131096, ptr %17, align 4
  %18 = getelementptr inbounds nuw i8, ptr %14, i64 8
  store ptr %5, ptr %18, align 8, !tbaa !10
  %19 = getelementptr inbounds nuw i8, ptr %14, i64 16
  store ptr %2, ptr %19, align 8, !tbaa !10
  br i1 %.not.i20, label %20, label %lean_inc.exit16

20:                                               ; preds = %l_Lean_Macro_getMethodsImp.exit
  %.val.i = load i32, ptr %5, align 4, !tbaa !4
  %21 = icmp sgt i32 %.val.i, 0
  br i1 %21, label %22, label %24, !prof !9

22:                                               ; preds = %20
  %23 = add nuw i32 %.val.i, 1
  store i32 %23, ptr %5, align 4, !tbaa !4
  br label %lean_inc.exit16

24:                                               ; preds = %20
  %.not.i21 = icmp eq i32 %.val.i, 0
  br i1 %.not.i21, label %lean_inc.exit16, label %25

25:                                               ; preds = %24
  tail call void @lean_inc_ref_cold(ptr noundef nonnull %5) #11
  br label %lean_inc.exit16

lean_inc.exit16:                                  ; preds = %25, %24, %22, %l_Lean_Macro_getMethodsImp.exit
  %26 = ptrtoint ptr %2 to i64
  %27 = and i64 %26, 1
  %.not28 = icmp eq i64 %27, 0
  br i1 %.not28, label %28, label %lean_inc.exit15

28:                                               ; preds = %lean_inc.exit16
  %.val.i22 = load i32, ptr %2, align 4, !tbaa !4
  %29 = icmp sgt i32 %.val.i22, 0
  br i1 %29, label %30, label %32, !prof !9

30:                                               ; preds = %28
  %31 = add nuw i32 %.val.i22, 1
  store i32 %31, ptr %2, align 4, !tbaa !4
  br label %lean_inc.exit15

32:                                               ; preds = %28
  %.not.i23 = icmp eq i32 %.val.i22, 0
  br i1 %.not.i23, label %lean_inc.exit15, label %33

33:                                               ; preds = %32
  tail call void @lean_inc_ref_cold(ptr noundef nonnull %2) #11
  br label %lean_inc.exit15

lean_inc.exit15:                                  ; preds = %33, %32, %30, %lean_inc.exit16
  %34 = ptrtoint ptr %14 to i64
  %35 = and i64 %34, 1
  %.not29 = icmp eq i64 %35, 0
  br i1 %.not29, label %36, label %lean_dec.exit17

36:                                               ; preds = %lean_inc.exit15
  tail call void @lean_dec_ref_cold(ptr noundef nonnull %14) #11
  br label %lean_dec.exit17

lean_dec.exit17:                                  ; preds = %36, %lean_inc.exit15
  %37 = getelementptr inbounds nuw i8, ptr %5, i64 8
  %38 = load ptr, ptr %37, align 8, !tbaa !10
  %39 = ptrtoint ptr %38 to i64
  %40 = and i64 %39, 1
  %.not30 = icmp eq i64 %40, 0
  br i1 %.not30, label %41, label %lean_inc.exit

41:                                               ; preds = %lean_dec.exit17
  %.val.i25 = load i32, ptr %38, align 4, !tbaa !4
  %42 = icmp sgt i32 %.val.i25, 0
  br i1 %42, label %43, label %45, !prof !9

43:                                               ; preds = %41
  %44 = add nuw i32 %.val.i25, 1
  store i32 %44, ptr %38, align 4, !tbaa !4
  br label %lean_inc.exit

45:                                               ; preds = %41
  %.not.i26 = icmp eq i32 %.val.i25, 0
  br i1 %.not.i26, label %lean_inc.exit, label %46

46:                                               ; preds = %45
  tail call void @lean_inc_ref_cold(ptr noundef nonnull %38) #11
  br label %lean_inc.exit

lean_inc.exit:                                    ; preds = %46, %45, %43, %lean_dec.exit17
  br i1 %.not.i20, label %47, label %lean_dec.exit

47:                                               ; preds = %lean_inc.exit
  %48 = load i32, ptr %5, align 4, !tbaa !4
  %49 = icmp sgt i32 %48, 1
  br i1 %49, label %50, label %52, !prof !9

50:                                               ; preds = %47
  %51 = add nsw i32 %48, -1
  store i32 %51, ptr %5, align 4, !tbaa !4
  br label %lean_dec.exit

52:                                               ; preds = %47
  %.not.i18 = icmp eq i32 %48, 0
  br i1 %.not.i18, label %lean_dec.exit, label %53

53:                                               ; preds = %52
  tail call void @lean_dec_ref_cold(ptr noundef nonnull %5) #11
  br label %lean_dec.exit

lean_dec.exit:                                    ; preds = %53, %52, %50, %lean_inc.exit
  %54 = tail call ptr @lean_apply_3(ptr noundef %38, ptr noundef %0, ptr noundef nonnull %1, ptr noundef %2) #11
  ret ptr %54
}